; Function Attrs: nounwind uwtable
define dso_local noundef i64 @macaddr_trunc(ptr noundef readonly captures(none) %0) local_unnamed_addr #0 {
  %2 = getelementptr inbounds nuw i8, ptr %0, i64 32
  %3 = load i64, ptr %2, align 8
  %4 = inttoptr i64 %3 to ptr
  %5 = tail call ptr @palloc(i64 noundef 6) #7
  %6 = load i8, ptr %4, align 1
  store i8 %6, ptr %5, align 1
  %7 = getelementptr inbounds nuw i8, ptr %4, i64 1
  %8 = load i8, ptr %7, align 1
  %9 = getelementptr inbounds nuw i8, ptr %5, i64 1
  store i8 %8, ptr %9, align 1
  %10 = getelementptr inbounds nuw i8, ptr %4, i64 2
  %11 = load i8, ptr %10, align 1
  %12 = getelementptr inbounds nuw i8, ptr %5, i64 2
  store i8 %11, ptr %12, align 1
  %13 = getelementptr inbounds nuw i8, ptr %5, i64 3
  store i8 0, ptr %13, align 1
  %14 = getelementptr inbounds nuw i8, ptr %5, i64 4
  store i8 0, ptr %14, align 1
  %15 = getelementptr inbounds nuw i8, ptr %5, i64 5
  store i8 0, ptr %15, align 1
  %16 = ptrtoint ptr %5 to i64
  ret i64 %16
}